target datalayout = "e-m:e-p270:32:32-p271:32:32-p272:64:64-i64:64-i128:128-f80:128-n8:16:32:64-S128"
target triple = "x86_64-pc-linux-gnu"

%class.QString = type { %struct.QArrayDataPointer }
%struct.QArrayDataPointer = type { ptr, ptr, i64 }
%class.QList.5 = type { %struct.QArrayDataPointer.8 }
%struct.QArrayDataPointer.8 = type { ptr, ptr, i64 }
%class.MulticastStatisticsDialog = type { %class.TapParameterDialog, ptr, ptr, ptr, ptr, ptr, ptr, %class.QList.5 }
%class.TapParameterDialog = type { %class.WiresharkDialog.base, ptr, %class.QMenu, %class.QList.1, i32, ptr }
%class.WiresharkDialog.base = type <{ %class.GeometryStateDialog, ptr, i8, [7 x i8], %class.QString, %class.QList, i32, i8 }>
%class.GeometryStateDialog = type { %class.QDialog, %class.QString }
%class.QDialog = type { %class.QWidget }
%class.QWidget = type { %class.QObject, %class.QPaintDevice.base, ptr }
%class.QObject = type { ptr, %class.QScopedPointer }
%class.QScopedPointer = type { ptr }
%class.QPaintDevice.base = type <{ ptr, i16 }>
%class.QList = type { %struct.QArrayDataPointer.0 }
%struct.QArrayDataPointer.0 = type { ptr, ptr, i64 }
%class.QMenu = type { %class.QWidget }
%class.QList.1 = type { %struct.QArrayDataPointer.4 }
%struct.QArrayDataPointer.4 = type { ptr, ptr, i64 }
%struct._mcaststream_tapinfo = type { ptr, ptr, ptr, ptr, i32, ptr, i32 }
%class.WiresharkDialog = type <{ %class.GeometryStateDialog, ptr, i8, [7 x i8], %class.QString, %class.QList, i32, i8, [3 x i8] }>
%class.CaptureFile = type { %class.QObject, ptr, %class.QString }

; Function Attrs: mustprogress uwtable
define linkonce_odr noundef ptr @_ZNK11CaptureFile7capFileEv(ptr noundef nonnull align 8 dereferenceable(48) %0) #0 comdat align 2 {
  %2 = alloca ptr, align 8
  store ptr %0, ptr %2, align 8
  %3 = load ptr, ptr %2, align 8
  %4 = call noundef zeroext i1 @_ZNK11CaptureFile7isValidEv(ptr noundef nonnull align 8 dereferenceable(48) %3)
  br i1 %4, label %5, label %8

5:                                                ; preds = %1
  %6 = getelementptr inbounds %class.CaptureFile, ptr %3, i32 0, i32 1
  %7 = load ptr, ptr %6, align 8
  br label %9

8:                                                ; preds = %1
  br label %9

9:                                                ; preds = %8, %5
  %10 = phi ptr [ %7, %5 ], [ null, %8 ]
  ret ptr %10
}

; Function Attrs: mustprogress uwtable
define void @_ZN25MulticastStatisticsDialog6rescanEv(ptr noundef nonnull align 8 dereferenceable(296) %0) #0 align 2 {
  %2 = alloca ptr, align 8
  %3 = alloca i32, align 4
  store ptr %0, ptr %2, align 8
  %4 = load ptr, ptr %2, align 8
  %5 = getelementptr inbounds %class.MulticastStatisticsDialog, ptr %4, i32 0, i32 1
  %6 = load ptr, ptr %5, align 8
  %7 = getelementptr inbounds %struct._mcaststream_tapinfo, ptr %6, i32 0, i32 6
  %8 = load i32, ptr %7, align 8
  store i32 %8, ptr %3, align 4
  %9 = getelementptr inbounds %class.MulticastStatisticsDialog, ptr %4, i32 0, i32 1
  %10 = load ptr, ptr %9, align 8
  %11 = getelementptr inbounds %struct._mcaststream_tapinfo, ptr %10, i32 0, i32 6
  %12 = load i32, ptr %11, align 8
  %13 = icmp ne i32 %12, 0
  br i1 %13, label %18, label %14

14:                                               ; preds = %1
  %15 = getelementptr inbounds %class.MulticastStatisticsDialog, ptr %4, i32 0, i32 1
  %16 = load ptr, ptr %15, align 8
  %17 = call ptr @register_tap_listener_mcast_stream(ptr noundef %16)
  br label %18

18:                                               ; preds = %14, %1
  %19 = getelementptr inbounds %class.WiresharkDialog, ptr %4, i32 0, i32 1
  %20 = load ptr, ptr %19, align 8
  %21 = call noundef ptr @_ZNK11CaptureFile7capFileEv(ptr noundef nonnull align 8 dereferenceable(48) %20)
  %22 = call i32 @cf_retap_packets(ptr noundef %21)
  %23 = load i32, ptr %3, align 4
  %24 = icmp ne i32 %23, 0
  br i1 %24, label %28, label %25

25:                                               ; preds = %18
  %26 = getelementptr inbounds %class.MulticastStatisticsDialog, ptr %4, i32 0, i32 1
  %27 = load ptr, ptr %26, align 8
  call void @remove_tap_listener_mcast_stream(ptr noundef %27)
  br label %28

28:                                               ; preds = %25, %18
  %29 = getelementptr inbounds %class.MulticastStatisticsDialog, ptr %4, i32 0, i32 1
  %30 = load ptr, ptr %29, align 8
  call void @_ZN25MulticastStatisticsDialog7tapDrawEP20_mcaststream_tapinfo(ptr noundef %30)
  ret void
}