; Function Attrs: mustprogress uwtable
define void @_ZN25MulticastStatisticsDialog6rescanEv(ptr nocapture noundef nonnull readonly align 8 dereferenceable(296) %0) local_unnamed_addr #0 align 2 {
  %2 = getelementptr inbounds i8, ptr %0, i64 224
  %3 = load ptr, ptr %2, align 8
  %4 = getelementptr inbounds i8, ptr %3, i64 48
  %5 = load i32, ptr %4, align 8
  %.not = icmp eq i32 %5, 0
  br i1 %.not, label %6, label %.critedge

6:                                                ; preds = %1
  %7 = tail call ptr @register_tap_listener_mcast_stream(ptr noundef nonnull %3)
  %8 = getelementptr inbounds i8, ptr %0, i64 64
  %9 = load ptr, ptr %8, align 8
  %10 = tail call noundef zeroext i1 @_ZNK11CaptureFile7isValidEv(ptr noundef nonnull align 8 dereferenceable(48) %9)
  %11 = getelementptr inbounds i8, ptr %9, i64 16
  %12 = load ptr, ptr %11, align 8
  %13 = select i1 %10, ptr %12, ptr null
  %14 = tail call i32 @cf_retap_packets(ptr noundef %13)
  %15 = load ptr, ptr %2, align 8
  tail call void @remove_tap_listener_mcast_stream(ptr noundef %15)
  br label %23

.critedge:                                        ; preds = %1
  %16 = getelementptr inbounds i8, ptr %0, i64 64
  %17 = load ptr, ptr %16, align 8
  %18 = tail call noundef zeroext i1 @_ZNK11CaptureFile7isValidEv(ptr noundef nonnull align 8 dereferenceable(48) %17)
  %19 = getelementptr inbounds i8, ptr %17, i64 16
  %20 = load ptr, ptr %19, align 8
  %21 = select i1 %18, ptr %20, ptr null
  %22 = tail call i32 @cf_retap_packets(ptr noundef %21)
  br label %23

23:                                               ; preds = %.critedge, %6
  %24 = load ptr, ptr %2, align 8
  tail call void @_ZN25MulticastStatisticsDialog7tapDrawEP20_mcaststream_tapinfo(ptr noundef %24)
  ret void
}